; Function Attrs: nounwind uwtable
define dso_local ptr @yyjson_write_opts(ptr noundef readonly captures(address_is_null) %0, i32 noundef %1, ptr noundef captures(address_is_null) %2, ptr noundef captures(address_is_null) %3, ptr noundef captures(address_is_null) %4) local_unnamed_addr #8 {
  %.not = icmp eq ptr %0, null
  br i1 %.not, label %8, label %6

6:                                                ; preds = %5
  %7 = load ptr, ptr %0, align 8, !tbaa !69
  br label %8

8:                                                ; preds = %5, %6
  %9 = phi ptr [ %7, %6 ], [ null, %5 ]
  %10 = tail call ptr @yyjson_val_write_opts(ptr noundef %9, i32 noundef %1, ptr noundef %2, ptr noundef %3, ptr noundef %4)
  ret ptr %10
}